; Function Attrs: nounwind uwtable
define void @Ptngc_comp_conv_from_mtf_partial(ptr noundef readonly captures(none) %0, i32 noundef %1, ptr noundef captures(none) %2) local_unnamed_addr #0 {
  %4 = alloca [256 x i32], align 16
  %5 = alloca [256 x i32], align 16
  %6 = shl nsw i32 %1, 1
  %7 = sext i32 %6 to i64
  %8 = tail call ptr @Ptngc_warnmalloc_x(i64 noundef %7, ptr noundef nonnull @.str, i32 noundef 163) #5
  %9 = sext i32 %1 to i64
  %10 = shl nsw i64 %9, 2
  tail call void @llvm.memset.p0.i64(ptr align 4 %2, i8 0, i64 %10, i1 false)
  %11 = icmp sgt i32 %1, 0
  %12 = getelementptr inbounds i8, ptr %8, i64 %9
  %13 = getelementptr inbounds nuw i8, ptr %4, i64 1020
  %wide.trip.count.i = zext i32 %1 to i64
  br i1 %11, label %.preheader.us.preheader, label %.preheader

.preheader.us.preheader:                          ; preds = %3
  %invariant.gep = getelementptr inbounds nuw i8, ptr %8, i64 %wide.trip.count.i
  br label %.lr.ph.us

._crit_edge.us:                                   ; preds = %49
  call void @llvm.lifetime.start.p0(i64 1024, ptr nonnull %4) #5
  call void @llvm.lifetime.start.p0(i64 1024, ptr nonnull %5) #5
  br label %14

14:                                               ; preds = %14, %._crit_edge.us
  %indvars.iv.i.us = phi i64 [ 0, %._crit_edge.us ], [ %indvars.iv.next.i.us, %14 ]
  %15 = getelementptr inbounds nuw [256 x i32], ptr %5, i64 0, i64 %indvars.iv.i.us
  %16 = trunc nuw nsw i64 %indvars.iv.i.us to i32
  store i32 %16, ptr %15, align 4, !tbaa !3
  %indvars.iv.next.i.us = add nuw nsw i64 %indvars.iv.i.us, 1
  %exitcond.not.i.us = icmp eq i64 %indvars.iv.next.i.us, 256
  br i1 %exitcond.not.i.us, label %.preheader.i.us, label %14, !llvm.loop !18

.preheader.i.us:                                  ; preds = %14, %.preheader.i.us
  %indvars.iv44.i.us = phi i64 [ %indvars.iv.next45.i.us, %.preheader.i.us ], [ 0, %14 ]
  %indvars.iv.next45.i.us = add nuw nsw i64 %indvars.iv44.i.us, 1
  %17 = getelementptr inbounds nuw [256 x i32], ptr %4, i64 0, i64 %indvars.iv44.i.us
  %18 = trunc nuw nsw i64 %indvars.iv.next45.i.us to i32
  store i32 %18, ptr %17, align 4, !tbaa !3
  %exitcond47.not.i.us = icmp eq i64 %indvars.iv.next45.i.us, 255
  br i1 %exitcond47.not.i.us, label %.lr.ph40.preheader.i.us, label %.preheader.i.us, !llvm.loop !19

.lr.ph40.preheader.i.us:                          ; preds = %.preheader.i.us
  store i32 -1, ptr %13, align 4, !tbaa !3
  br label %.lr.ph40.i.us

.lr.ph40.i.us:                                    ; preds = %40, %.lr.ph40.preheader.i.us
  %indvars.iv49.i.us = phi i64 [ 0, %.lr.ph40.preheader.i.us ], [ %indvars.iv.next50.i.us, %40 ]
  %.03037.i.us = phi i32 [ 0, %.lr.ph40.preheader.i.us ], [ %.131.i.us, %40 ]
  %19 = getelementptr inbounds nuw i8, ptr %8, i64 %indvars.iv49.i.us
  %20 = load i8, ptr %19, align 1, !tbaa !10
  %21 = zext i8 %20 to i32
  %.not42.i.us = icmp eq i8 %20, 0
  br i1 %.not42.i.us, label %._crit_edge.thread.i.us, label %.lr.ph.i.us

.lr.ph.i.us:                                      ; preds = %.lr.ph40.i.us, %.lr.ph.i.us
  %.035.i.us = phi i32 [ %25, %.lr.ph.i.us ], [ 0, %.lr.ph40.i.us ]
  %.02834.i.us = phi i32 [ %24, %.lr.ph.i.us ], [ %.03037.i.us, %.lr.ph40.i.us ]
  %22 = sext i32 %.02834.i.us to i64
  %23 = getelementptr inbounds [256 x i32], ptr %4, i64 0, i64 %22
  %24 = load i32, ptr %23, align 4, !tbaa !3
  %25 = add nuw nsw i32 %.035.i.us, 1
  %exitcond48.not.i.us = icmp eq i32 %25, %21
  br i1 %exitcond48.not.i.us, label %._crit_edge.i.us, label %.lr.ph.i.us, !llvm.loop !20

._crit_edge.i.us:                                 ; preds = %.lr.ph.i.us
  %26 = sext i32 %24 to i64
  %27 = getelementptr inbounds [256 x i32], ptr %5, i64 0, i64 %26
  %28 = load i32, ptr %27, align 4, !tbaa !3
  %29 = trunc i32 %28 to i8
  %30 = getelementptr inbounds nuw i8, ptr %12, i64 %indvars.iv49.i.us
  store i8 %29, ptr %30, align 1, !tbaa !10
  %.not.i.us = icmp eq i32 %.02834.i.us, -1
  br i1 %.not.i.us, label %40, label %31

31:                                               ; preds = %._crit_edge.i.us
  %32 = getelementptr inbounds [256 x i32], ptr %4, i64 0, i64 %22
  %33 = getelementptr inbounds [256 x i32], ptr %4, i64 0, i64 %26
  %34 = load i32, ptr %33, align 4, !tbaa !3
  store i32 %34, ptr %32, align 4, !tbaa !3
  store i32 %.03037.i.us, ptr %33, align 4, !tbaa !3
  br label %40

._crit_edge.thread.i.us:                          ; preds = %.lr.ph40.i.us
  %35 = sext i32 %.03037.i.us to i64
  %36 = getelementptr inbounds [256 x i32], ptr %5, i64 0, i64 %35
  %37 = load i32, ptr %36, align 4, !tbaa !3
  %38 = trunc i32 %37 to i8
  %39 = getelementptr inbounds nuw i8, ptr %12, i64 %indvars.iv49.i.us
  store i8 %38, ptr %39, align 1, !tbaa !10
  br label %40

40:                                               ; preds = %._crit_edge.thread.i.us, %31, %._crit_edge.i.us
  %.131.i.us = phi i32 [ %24, %31 ], [ %.03037.i.us, %._crit_edge.i.us ], [ %.03037.i.us, %._crit_edge.thread.i.us ]
  %indvars.iv.next50.i.us = add nuw nsw i64 %indvars.iv49.i.us, 1
  %exitcond52.not.i.us = icmp eq i64 %indvars.iv.next50.i.us, %wide.trip.count.i
  br i1 %exitcond52.not.i.us, label %.lr.ph32.us, label %.lr.ph40.i.us, !llvm.loop !21

._crit_edge33.us:                                 ; preds = %42
  %41 = add nuw nsw i32 %.034.us, 1
  %exitcond77.not = icmp eq i32 %41, 3
  br i1 %exitcond77.not, label %.split36.us, label %.lr.ph.us, !llvm.loop !22

42:                                               ; preds = %.lr.ph32.us, %42
  %indvars.iv72 = phi i64 [ 0, %.lr.ph32.us ], [ %indvars.iv.next73, %42 ]
  %gep = getelementptr inbounds nuw i8, ptr %invariant.gep, i64 %indvars.iv72
  %43 = load i8, ptr %gep, align 1, !tbaa !10
  %44 = zext i8 %43 to i32
  %45 = shl nuw nsw i32 %44, %56
  %46 = getelementptr inbounds nuw i32, ptr %2, i64 %indvars.iv72
  %47 = load i32, ptr %46, align 4, !tbaa !3
  %48 = or i32 %45, %47
  store i32 %48, ptr %46, align 4, !tbaa !3
  %indvars.iv.next73 = add nuw nsw i64 %indvars.iv72, 1
  %exitcond76.not = icmp eq i64 %indvars.iv.next73, %wide.trip.count.i
  br i1 %exitcond76.not, label %._crit_edge33.us, label %42, !llvm.loop !23

49:                                               ; preds = %.lr.ph.us, %49
  %indvars.iv = phi i64 [ 0, %.lr.ph.us ], [ %indvars.iv.next, %49 ]
  %50 = getelementptr inbounds nuw i32, ptr %0, i64 %indvars.iv
  %51 = load i32, ptr %50, align 4, !tbaa !3
  %52 = lshr i32 %51, %55
  %53 = trunc i32 %52 to i8
  %54 = getelementptr inbounds nuw i8, ptr %8, i64 %indvars.iv
  store i8 %53, ptr %54, align 1, !tbaa !10
  %indvars.iv.next = add nuw nsw i64 %indvars.iv, 1
  %exitcond71.not = icmp eq i64 %indvars.iv.next, %wide.trip.count.i
  br i1 %exitcond71.not, label %._crit_edge.us, label %49, !llvm.loop !24

.lr.ph.us:                                        ; preds = %._crit_edge33.us, %.preheader.us.preheader
  %.034.us = phi i32 [ %41, %._crit_edge33.us ], [ 0, %.preheader.us.preheader ]
  %55 = shl nuw nsw i32 %.034.us, 3
  br label %49

.lr.ph32.us:                                      ; preds = %40
  call void @llvm.lifetime.end.p0(i64 1024, ptr nonnull %5) #5
  call void @llvm.lifetime.end.p0(i64 1024, ptr nonnull %4) #5
  %56 = shl nuw nsw i32 %.034.us, 3
  br label %42

.preheader:                                       ; preds = %3, %comp_conv_from_mtf_byte.exit
  %.034 = phi i32 [ %62, %comp_conv_from_mtf_byte.exit ], [ 0, %3 ]
  call void @llvm.lifetime.start.p0(i64 1024, ptr nonnull %4) #5
  call void @llvm.lifetime.start.p0(i64 1024, ptr nonnull %5) #5
  br label %57

57:                                               ; preds = %57, %.preheader
  %indvars.iv.i = phi i64 [ 0, %.preheader ], [ %indvars.iv.next.i, %57 ]
  %58 = getelementptr inbounds nuw [256 x i32], ptr %5, i64 0, i64 %indvars.iv.i
  %59 = trunc nuw nsw i64 %indvars.iv.i to i32
  store i32 %59, ptr %58, align 4, !tbaa !3
  %indvars.iv.next.i = add nuw nsw i64 %indvars.iv.i, 1
  %exitcond.not.i = icmp eq i64 %indvars.iv.next.i, 256
  br i1 %exitcond.not.i, label %.preheader.i, label %57, !llvm.loop !18

.preheader.i:                                     ; preds = %57, %.preheader.i
  %indvars.iv44.i = phi i64 [ %indvars.iv.next45.i, %.preheader.i ], [ 0, %57 ]
  %indvars.iv.next45.i = add nuw nsw i64 %indvars.iv44.i, 1
  %60 = getelementptr inbounds nuw [256 x i32], ptr %4, i64 0, i64 %indvars.iv44.i
  %61 = trunc nuw nsw i64 %indvars.iv.next45.i to i32
  store i32 %61, ptr %60, align 4, !tbaa !3
  %exitcond47.not.i = icmp eq i64 %indvars.iv.next45.i, 255
  br i1 %exitcond47.not.i, label %comp_conv_from_mtf_byte.exit, label %.preheader.i, !llvm.loop !19

comp_conv_from_mtf_byte.exit:                     ; preds = %.preheader.i
  call void @llvm.lifetime.end.p0(i64 1024, ptr nonnull %5) #5
  call void @llvm.lifetime.end.p0(i64 1024, ptr nonnull %4) #5
  %62 = add nuw nsw i32 %.034, 1
  %exitcond.not = icmp eq i32 %62, 3
  br i1 %exitcond.not, label %.split36.us, label %.preheader, !llvm.loop !22

.split36.us:                                      ; preds = %comp_conv_from_mtf_byte.exit, %._crit_edge33.us
  tail call void @free(ptr noundef %8) #5
  ret void
}